target datalayout = "e-m:e-p270:32:32-p271:32:32-p272:64:64-i64:64-i128:128-f80:128-n8:16:32:64-S128"
target triple = "x86_64-pc-linux-gnu"

; Function Attrs: nounwind uwtable
define internal signext i8 @lowerit(i8 noundef signext %0) #0 {
  %2 = alloca i8, align 1
  %3 = alloca i8, align 1
  store i8 %0, ptr %3, align 1
  %4 = load i8, ptr %3, align 1
  %5 = sext i8 %4 to i32
  switch i32 %5, label %6 [
    i32 65, label %8
    i32 66, label %9
    i32 67, label %10
    i32 68, label %11
    i32 69, label %12
    i32 70, label %13
    i32 71, label %14
    i32 72, label %15
    i32 73, label %16
    i32 74, label %17
    i32 75, label %18
    i32 76, label %19
    i32 77, label %20
    i32 78, label %21
    i32 79, label %22
    i32 80, label %23
    i32 81, label %24
    i32 82, label %25
    i32 83, label %26
    i32 84, label %27
    i32 85, label %28
    i32 86, label %29
    i32 87, label %30
    i32 88, label %31
    i32 89, label %32
    i32 90, label %33
  ]

6:                                                ; preds = %1
  %7 = load i8, ptr %3, align 1
  store i8 %7, ptr %2, align 1
  br label %34

8:                                                ; preds = %1
  store i8 97, ptr %2, align 1
  br label %34

9:                                                ; preds = %1
  store i8 98, ptr %2, align 1
  br label %34

10:                                               ; preds = %1
  store i8 99, ptr %2, align 1
  br label %34

11:                                               ; preds = %1
  store i8 100, ptr %2, align 1
  br label %34

12:                                               ; preds = %1
  store i8 101, ptr %2, align 1
  br label %34

13:                                               ; preds = %1
  store i8 102, ptr %2, align 1
  br label %34

14:                                               ; preds = %1
  store i8 103, ptr %2, align 1
  br label %34

15:                                               ; preds = %1
  store i8 104, ptr %2, align 1
  br label %34

16:                                               ; preds = %1
  store i8 105, ptr %2, align 1
  br label %34

17:                                               ; preds = %1
  store i8 106, ptr %2, align 1
  br label %34

18:                                               ; preds = %1
  store i8 107, ptr %2, align 1
  br label %34

19:                                               ; preds = %1
  store i8 108, ptr %2, align 1
  br label %34

20:                                               ; preds = %1
  store i8 109, ptr %2, align 1
  br label %34

21:                                               ; preds = %1
  store i8 110, ptr %2, align 1
  br label %34

22:                                               ; preds = %1
  store i8 111, ptr %2, align 1
  br label %34

23:                                               ; preds = %1
  store i8 112, ptr %2, align 1
  br label %34

24:                                               ; preds = %1
  store i8 113, ptr %2, align 1
  br label %34

25:                                               ; preds = %1
  store i8 114, ptr %2, align 1
  br label %34

26:                                               ; preds = %1
  store i8 115, ptr %2, align 1
  br label %34

27:                                               ; preds = %1
  store i8 116, ptr %2, align 1
  br label %34

28:                                               ; preds = %1
  store i8 117, ptr %2, align 1
  br label %34

29:                                               ; preds = %1
  store i8 118, ptr %2, align 1
  br label %34

30:                                               ; preds = %1
  store i8 119, ptr %2, align 1
  br label %34

31:                                               ; preds = %1
  store i8 120, ptr %2, align 1
  br label %34

32:                                               ; preds = %1
  store i8 121, ptr %2, align 1
  br label %34

33:                                               ; preds = %1
  store i8 122, ptr %2, align 1
  br label %34

34:                                               ; preds = %33, %32, %31, %30, %29, %28, %27, %26, %25, %24, %23, %22, %21, %20, %19, %18, %17, %16, %15, %14, %13, %12, %11, %10, %9, %8, %6
  %35 = load i8, ptr %2, align 1
  ret i8 %35
}

; Function Attrs: nounwind uwtable
define internal zeroext i1 @ciprefix(ptr noundef %0, ptr noundef %1) #0 {
  %3 = alloca i1, align 1
  %4 = alloca ptr, align 8
  %5 = alloca ptr, align 8
  store ptr %0, ptr %4, align 8
  store ptr %1, ptr %5, align 8
  br label %6

6:                                                ; preds = %12, %2
  %7 = load ptr, ptr %4, align 8
  %8 = load i8, ptr %7, align 1
  %9 = icmp ne i8 %8, 0
  br i1 %9, label %11, label %10

10:                                               ; preds = %6
  store i1 true, ptr %3, align 1
  br label %25

11:                                               ; preds = %6
  br label %12

12:                                               ; preds = %11
  %13 = load ptr, ptr %4, align 8
  %14 = getelementptr inbounds nuw i8, ptr %13, i32 1
  store ptr %14, ptr %4, align 8
  %15 = load i8, ptr %13, align 1
  %16 = call signext i8 @lowerit(i8 noundef signext %15)
  %17 = sext i8 %16 to i32
  %18 = load ptr, ptr %5, align 8
  %19 = getelementptr inbounds nuw i8, ptr %18, i32 1
  store ptr %19, ptr %5, align 8
  %20 = load i8, ptr %18, align 1
  %21 = call signext i8 @lowerit(i8 noundef signext %20)
  %22 = sext i8 %21 to i32
  %23 = icmp eq i32 %17, %22
  br i1 %23, label %6, label %24, !llvm.loop !47

24:                                               ; preds = %12
  store i1 false, ptr %3, align 1
  br label %25

25:                                               ; preds = %24, %10
  %26 = load i1, ptr %3, align 1
  ret i1 %26
}