; Function Attrs: nofree norecurse nosync nounwind memory(argmem: read) uwtable
define internal fastcc noundef zeroext i1 @ciprefix(ptr noundef readonly captures(none) %0, ptr noundef nonnull readonly captures(none) %1) unnamed_addr #20 {
  br label %3

3:                                                ; preds = %lowerit.exit, %2
  %.04 = phi ptr [ %0, %2 ], [ %5, %lowerit.exit ]
  %.0 = phi ptr [ %1, %2 ], [ %7, %lowerit.exit ]
  %4 = load i8, ptr %.04, align 1
  %.not = icmp eq i8 %4, 0
  br i1 %.not, label %11, label %lowerit.exit

lowerit.exit:                                     ; preds = %3
  %5 = getelementptr inbounds nuw i8, ptr %.04, i64 1
  %switch.tableidx = add i8 %4, -65
  %6 = icmp ult i8 %switch.tableidx, 26
  %switch.offset = add i8 %4, 32
  %spec.select = select i1 %6, i8 %switch.offset, i8 %4
  %7 = getelementptr inbounds nuw i8, ptr %.0, i64 1
  %8 = load i8, ptr %.0, align 1
  %switch.tableidx9 = add i8 %8, -65
  %9 = icmp ult i8 %switch.tableidx9, 26
  %switch.offset10 = add i8 %8, 32
  %spec.select11 = select i1 %9, i8 %switch.offset10, i8 %8
  %10 = icmp eq i8 %spec.select, %spec.select11
  br i1 %10, label %3, label %11, !llvm.loop !84

11:                                               ; preds = %lowerit.exit, %3
  ret i1 %.not
}